; Function Attrs: nounwind uwtable
define i64 @l_Lake_Hash_ofNat(ptr noundef %0) local_unnamed_addr #0 {
  %2 = ptrtoint ptr %0 to i64
  %3 = and i64 %2, 1
  %.not.i = icmp eq i64 %3, 0
  br i1 %.not.i, label %6, label %4

4:                                                ; preds = %1
  %5 = lshr i64 %2, 1
  br label %lean_uint64_of_nat.exit

6:                                                ; preds = %1
  %7 = tail call i64 @lean_uint64_of_big_nat(ptr noundef %0) #4
  br label %lean_uint64_of_nat.exit

lean_uint64_of_nat.exit:                          ; preds = %4, %6
  %8 = phi i64 [ %5, %4 ], [ %7, %6 ]
  ret i64 %8
}